; Function Attrs: nofree norecurse nounwind memory(readwrite, inaccessiblemem: none) uwtable
define hidden void @_mi_page_unfull(ptr noundef %0) local_unnamed_addr #5 {
  %2 = getelementptr i8, ptr %0, i64 14
  %.val = load i8, ptr %2, align 2
  %3 = and i8 %.val, 1
  %.not = icmp eq i8 %3, 0
  br i1 %.not, label %37, label %4

4:                                                ; preds = %1
  %5 = getelementptr inbounds nuw i8, ptr %0, i64 64
  %6 = load atomic i64, ptr %5 monotonic, align 8
  %7 = inttoptr i64 %6 to ptr
  %8 = getelementptr inbounds nuw i8, ptr %7, i64 3040
  %9 = getelementptr i8, ptr %0, i64 8
  %.val6.i = load i8, ptr %9, align 8
  %10 = and i8 %.val6.i, 4
  %.not7.i = icmp eq i8 %10, 0
  br i1 %.not7.i, label %11, label %mi_heap_page_queue_of.exit

11:                                               ; preds = %4
  %12 = getelementptr i8, ptr %0, i64 40
  %.val.i = load i64, ptr %12, align 8, !tbaa !38
  %13 = add i64 %.val.i, 7
  %14 = lshr i64 %13, 3
  %15 = icmp ult i64 %13, 16
  br i1 %15, label %mi_heap_page_queue_of.exit, label %16

16:                                               ; preds = %11
  %17 = icmp ult i64 %13, 72
  br i1 %17, label %18, label %21

18:                                               ; preds = %16
  %19 = add nuw nsw i64 %14, 1
  %20 = and i64 %19, 30
  br label %mi_heap_page_queue_of.exit

21:                                               ; preds = %16
  %22 = icmp ugt i64 %13, 131079
  br i1 %22, label %mi_heap_page_queue_of.exit, label %23

23:                                               ; preds = %21
  %24 = add nsw i64 %14, -1
  %25 = tail call range(i64 50, 61) i64 @llvm.ctlz.i64(i64 range(i64 8, 16384) %24, i1 true)
  %26 = shl nuw nsw i64 %25, 2
  %27 = xor i64 %26, 252
  %28 = sub nuw nsw i64 61, %25
  %29 = lshr i64 %24, %28
  %30 = and i64 %29, 3
  %31 = add nuw nsw i64 %27, 253
  %32 = add nuw nsw i64 %31, %30
  %33 = and i64 %32, 255
  br label %mi_heap_page_queue_of.exit

mi_heap_page_queue_of.exit:                       ; preds = %4, %11, %18, %21, %23
  %34 = phi i64 [ 73, %4 ], [ %20, %18 ], [ %33, %23 ], [ 1, %11 ], [ 73, %21 ]
  %35 = getelementptr inbounds nuw i8, ptr %7, i64 1264
  %36 = getelementptr inbounds nuw [75 x %struct.mi_page_queue_s], ptr %35, i64 0, i64 %34
  store i8 %.val, ptr %2, align 2
  tail call fastcc void @mi_page_queue_enqueue_from_ex(ptr noundef nonnull %36, ptr noundef nonnull %8, ptr noundef nonnull %0) #14
  br label %37

37:                                               ; preds = %1, %mi_heap_page_queue_of.exit
  ret void
}